target datalayout = "e-m:e-p270:32:32-p271:32:32-p272:64:64-i64:64-i128:128-f80:128-n8:16:32:64-S128"
target triple = "x86_64-pc-linux-gnu"

%"class.pxrInternal_v0_24__pxrReserved__::HdCollectionExpressionEvaluator" = type { %"class.pxrInternal_v0_24__pxrReserved__::TfRefPtr", %"class.pxrInternal_v0_24__pxrReserved__::SdfPathExpressionEval" }
%"class.pxrInternal_v0_24__pxrReserved__::TfRefPtr" = type { ptr }
%"class.pxrInternal_v0_24__pxrReserved__::SdfPathExpressionEval" = type { %"class.pxrInternal_v0_24__pxrReserved__::Sdf_PathExpressionEvalBase", %"class.std::vector.0" }
%"class.pxrInternal_v0_24__pxrReserved__::Sdf_PathExpressionEvalBase" = type { %"class.std::vector" }
%"class.std::vector" = type { %"struct.std::_Vector_base" }
%"struct.std::_Vector_base" = type { %"struct.std::_Vector_base<pxrInternal_v0_24__pxrReserved__::Sdf_PathExpressionEvalBase::_Op, std::allocator<pxrInternal_v0_24__pxrReserved__::Sdf_PathExpressionEvalBase::_Op>>::_Vector_impl" }
%"struct.std::_Vector_base<pxrInternal_v0_24__pxrReserved__::Sdf_PathExpressionEvalBase::_Op, std::allocator<pxrInternal_v0_24__pxrReserved__::Sdf_PathExpressionEvalBase::_Op>>::_Vector_impl" = type { %"struct.std::_Vector_base<pxrInternal_v0_24__pxrReserved__::Sdf_PathExpressionEvalBase::_Op, std::allocator<pxrInternal_v0_24__pxrReserved__::Sdf_PathExpressionEvalBase::_Op>>::_Vector_impl_data" }
%"struct.std::_Vector_base<pxrInternal_v0_24__pxrReserved__::Sdf_PathExpressionEvalBase::_Op, std::allocator<pxrInternal_v0_24__pxrReserved__::Sdf_PathExpressionEvalBase::_Op>>::_Vector_impl_data" = type { ptr, ptr, ptr }
%"class.std::vector.0" = type { %"struct.std::_Vector_base.1" }
%"struct.std::_Vector_base.1" = type { %"struct.std::_Vector_base<pxrInternal_v0_24__pxrReserved__::SdfPathExpressionEval<const pxrInternal_v0_24__pxrReserved__::HdSceneIndexPrim &>::_PatternImpl, std::allocator<pxrInternal_v0_24__pxrReserved__::SdfPathExpressionEval<const pxrInternal_v0_24__pxrReserved__::HdSceneIndexPrim &>::_PatternImpl>>::_Vector_impl" }
%"struct.std::_Vector_base<pxrInternal_v0_24__pxrReserved__::SdfPathExpressionEval<const pxrInternal_v0_24__pxrReserved__::HdSceneIndexPrim &>::_PatternImpl, std::allocator<pxrInternal_v0_24__pxrReserved__::SdfPathExpressionEval<const pxrInternal_v0_24__pxrReserved__::HdSceneIndexPrim &>::_PatternImpl>>::_Vector_impl" = type { %"struct.std::_Vector_base<pxrInternal_v0_24__pxrReserved__::SdfPathExpressionEval<const pxrInternal_v0_24__pxrReserved__::HdSceneIndexPrim &>::_PatternImpl, std::allocator<pxrInternal_v0_24__pxrReserved__::SdfPathExpressionEval<const pxrInternal_v0_24__pxrReserved__::HdSceneIndexPrim &>::_PatternImpl>>::_Vector_impl_data" }
%"struct.std::_Vector_base<pxrInternal_v0_24__pxrReserved__::SdfPathExpressionEval<const pxrInternal_v0_24__pxrReserved__::HdSceneIndexPrim &>::_PatternImpl, std::allocator<pxrInternal_v0_24__pxrReserved__::SdfPathExpressionEval<const pxrInternal_v0_24__pxrReserved__::HdSceneIndexPrim &>::_PatternImpl>>::_Vector_impl_data" = type { ptr, ptr, ptr }
%"class.pxrInternal_v0_24__pxrReserved__::SdfPredicateFunctionResult" = type { i8, i32 }
%class.anon = type { ptr }
%"class.__gnu_cxx::__normal_iterator" = type { ptr }
%class.anon.160 = type { ptr, ptr, ptr }
%"class.pxrInternal_v0_24__pxrReserved__::TfFunctionRef.161" = type { ptr, ptr }

; Function Attrs: mustprogress nounwind uwtable
define linkonce_odr noundef nonnull align 8 dereferenceable(8) ptr @_ZNK9__gnu_cxx17__normal_iteratorIPKN32pxrInternal_v0_24__pxrReserved__21SdfPathExpressionEvalIRKNS1_16HdSceneIndexPrimEE12_PatternImplESt6vectorIS7_SaIS7_EEE4baseEv(ptr noundef nonnull align 8 dereferenceable(8) %0) #2 comdat align 2 {
  %2 = alloca ptr, align 8
  store ptr %0, ptr %2, align 8
  %3 = load ptr, ptr %2, align 8
  %4 = getelementptr inbounds nuw %"class.__gnu_cxx::__normal_iterator", ptr %3, i32 0, i32 0
  ret ptr %4
}

; Function Attrs: mustprogress nounwind uwtable
define linkonce_odr noundef zeroext i1 @_ZN9__gnu_cxxeqIPKN32pxrInternal_v0_24__pxrReserved__21SdfPathExpressionEvalIRKNS1_16HdSceneIndexPrimEE12_PatternImplESt6vectorIS7_SaIS7_EEEEbRKNS_17__normal_iteratorIT_T0_EESI_(ptr noundef nonnull align 8 dereferenceable(8) %0, ptr noundef nonnull align 8 dereferenceable(8) %1) #2 comdat {
  %3 = alloca ptr, align 8
  %4 = alloca ptr, align 8
  store ptr %0, ptr %3, align 8
  store ptr %1, ptr %4, align 8
  %5 = load ptr, ptr %3, align 8
  %6 = call noundef nonnull align 8 dereferenceable(8) ptr @_ZNK9__gnu_cxx17__normal_iteratorIPKN32pxrInternal_v0_24__pxrReserved__21SdfPathExpressionEvalIRKNS1_16HdSceneIndexPrimEE12_PatternImplESt6vectorIS7_SaIS7_EEE4baseEv(ptr noundef nonnull align 8 dereferenceable(8) %5) #11
  %7 = load ptr, ptr %6, align 8
  %8 = load ptr, ptr %4, align 8
  %9 = call noundef nonnull align 8 dereferenceable(8) ptr @_ZNK9__gnu_cxx17__normal_iteratorIPKN32pxrInternal_v0_24__pxrReserved__21SdfPathExpressionEvalIRKNS1_16HdSceneIndexPrimEE12_PatternImplESt6vectorIS7_SaIS7_EEE4baseEv(ptr noundef nonnull align 8 dereferenceable(8) %8) #11
  %10 = load ptr, ptr %9, align 8
  %11 = icmp eq ptr %7, %10
  ret i1 %11
}

; Function Attrs: mustprogress nounwind uwtable
define linkonce_odr ptr @_ZNKSt6vectorIN32pxrInternal_v0_24__pxrReserved__21SdfPathExpressionEvalIRKNS0_16HdSceneIndexPrimEE12_PatternImplESaIS6_EE3endEv(ptr noundef nonnull align 8 dereferenceable(24) %0) #2 comdat align 2 {
  %2 = alloca %"class.__gnu_cxx::__normal_iterator", align 8
  %3 = alloca ptr, align 8
  store ptr %0, ptr %3, align 8
  %4 = load ptr, ptr %3, align 8
  %5 = getelementptr inbounds nuw %"struct.std::_Vector_base.1", ptr %4, i32 0, i32 0
  %6 = getelementptr inbounds nuw %"struct.std::_Vector_base<pxrInternal_v0_24__pxrReserved__::SdfPathExpressionEval<const pxrInternal_v0_24__pxrReserved__::HdSceneIndexPrim &>::_PatternImpl, std::allocator<pxrInternal_v0_24__pxrReserved__::SdfPathExpressionEval<const pxrInternal_v0_24__pxrReserved__::HdSceneIndexPrim &>::_PatternImpl>>::_Vector_impl_data", ptr %5, i32 0, i32 1
  call void @_ZN9__gnu_cxx17__normal_iteratorIPKN32pxrInternal_v0_24__pxrReserved__21SdfPathExpressionEvalIRKNS1_16HdSceneIndexPrimEE12_PatternImplESt6vectorIS7_SaIS7_EEEC2ERKS9_(ptr noundef nonnull align 8 dereferenceable(8) %2, ptr noundef nonnull align 8 dereferenceable(8) %6) #11
  %7 = getelementptr inbounds nuw %"class.__gnu_cxx::__normal_iterator", ptr %2, i32 0, i32 0
  %8 = load ptr, ptr %7, align 8
  ret ptr %8
}

; Function Attrs: mustprogress nounwind uwtable
define linkonce_odr ptr @_ZNKSt6vectorIN32pxrInternal_v0_24__pxrReserved__21SdfPathExpressionEvalIRKNS0_16HdSceneIndexPrimEE12_PatternImplESaIS6_EE5beginEv(ptr noundef nonnull align 8 dereferenceable(24) %0) #2 comdat align 2 {
  %2 = alloca %"class.__gnu_cxx::__normal_iterator", align 8
  %3 = alloca ptr, align 8
  store ptr %0, ptr %3, align 8
  %4 = load ptr, ptr %3, align 8
  %5 = getelementptr inbounds nuw %"struct.std::_Vector_base.1", ptr %4, i32 0, i32 0
  %6 = getelementptr inbounds nuw %"struct.std::_Vector_base<pxrInternal_v0_24__pxrReserved__::SdfPathExpressionEval<const pxrInternal_v0_24__pxrReserved__::HdSceneIndexPrim &>::_PatternImpl, std::allocator<pxrInternal_v0_24__pxrReserved__::SdfPathExpressionEval<const pxrInternal_v0_24__pxrReserved__::HdSceneIndexPrim &>::_PatternImpl>>::_Vector_impl_data", ptr %5, i32 0, i32 0
  call void @_ZN9__gnu_cxx17__normal_iteratorIPKN32pxrInternal_v0_24__pxrReserved__21SdfPathExpressionEvalIRKNS1_16HdSceneIndexPrimEE12_PatternImplESt6vectorIS7_SaIS7_EEEC2ERKS9_(ptr noundef nonnull align 8 dereferenceable(8) %2, ptr noundef nonnull align 8 dereferenceable(8) %6) #11
  %7 = getelementptr inbounds nuw %"class.__gnu_cxx::__normal_iterator", ptr %2, i32 0, i32 0
  %8 = load ptr, ptr %7, align 8
  ret ptr %8
}

; Function Attrs: mustprogress nounwind uwtable
define linkonce_odr void @_ZN9__gnu_cxx17__normal_iteratorIPKN32pxrInternal_v0_24__pxrReserved__21SdfPathExpressionEvalIRKNS1_16HdSceneIndexPrimEE12_PatternImplESt6vectorIS7_SaIS7_EEEC2ERKS9_(ptr noundef nonnull align 8 dereferenceable(8) %0, ptr noundef nonnull align 8 dereferenceable(8) %1) unnamed_addr #2 comdat align 2 {
  %3 = alloca ptr, align 8
  %4 = alloca ptr, align 8
  store ptr %0, ptr %3, align 8
  store ptr %1, ptr %4, align 8
  %5 = load ptr, ptr %3, align 8
  %6 = getelementptr inbounds nuw %"class.__gnu_cxx::__normal_iterator", ptr %5, i32 0, i32 0
  %7 = load ptr, ptr %4, align 8
  %8 = load ptr, ptr %7, align 8
  store ptr %8, ptr %6, align 8
  ret void
}

; Function Attrs: mustprogress nounwind uwtable
define linkonce_odr noundef zeroext i1 @_ZNKSt6vectorIN32pxrInternal_v0_24__pxrReserved__21SdfPathExpressionEvalIRKNS0_16HdSceneIndexPrimEE12_PatternImplESaIS6_EE5emptyEv(ptr noundef nonnull align 8 dereferenceable(24) %0) #2 comdat align 2 {
  %2 = alloca ptr, align 8
  %3 = alloca %"class.__gnu_cxx::__normal_iterator", align 8
  %4 = alloca %"class.__gnu_cxx::__normal_iterator", align 8
  store ptr %0, ptr %2, align 8
  %5 = load ptr, ptr %2, align 8
  %6 = call ptr @_ZNKSt6vectorIN32pxrInternal_v0_24__pxrReserved__21SdfPathExpressionEvalIRKNS0_16HdSceneIndexPrimEE12_PatternImplESaIS6_EE5beginEv(ptr noundef nonnull align 8 dereferenceable(24) %5) #11
  %7 = getelementptr inbounds nuw %"class.__gnu_cxx::__normal_iterator", ptr %3, i32 0, i32 0
  store ptr %6, ptr %7, align 8
  %8 = call ptr @_ZNKSt6vectorIN32pxrInternal_v0_24__pxrReserved__21SdfPathExpressionEvalIRKNS0_16HdSceneIndexPrimEE12_PatternImplESaIS6_EE3endEv(ptr noundef nonnull align 8 dereferenceable(24) %5) #11
  %9 = getelementptr inbounds nuw %"class.__gnu_cxx::__normal_iterator", ptr %4, i32 0, i32 0
  store ptr %8, ptr %9, align 8
  %10 = call noundef zeroext i1 @_ZN9__gnu_cxxeqIPKN32pxrInternal_v0_24__pxrReserved__21SdfPathExpressionEvalIRKNS1_16HdSceneIndexPrimEE12_PatternImplESt6vectorIS7_SaIS7_EEEEbRKNS_17__normal_iteratorIT_T0_EESI_(ptr noundef nonnull align 8 dereferenceable(8) %3, ptr noundef nonnull align 8 dereferenceable(8) %4) #11
  ret i1 %10
}

; Function Attrs: mustprogress nounwind uwtable
define internal void @"_ZN32pxrInternal_v0_24__pxrReserved__13TfFunctionRefIFNS_26SdfPredicateFunctionResultEbEEC2IZNKS_21SdfPathExpressionEvalIRKNS_16HdSceneIndexPrimEE5MatchIZNKS_31HdCollectionExpressionEvaluator5MatchERKNS_7SdfPathEE3$_0EES1_SE_RKT_EUlbE_vEERSG_"(ptr noundef nonnull align 8 dereferenceable(16) %0, ptr noundef nonnull align 8 dereferenceable(24) %1) unnamed_addr #2 align 2 {
  %3 = alloca ptr, align 8
  %4 = alloca ptr, align 8
  store ptr %0, ptr %3, align 8
  store ptr %1, ptr %4, align 8
  %5 = load ptr, ptr %3, align 8
  %6 = getelementptr inbounds nuw %"class.pxrInternal_v0_24__pxrReserved__::TfFunctionRef.161", ptr %5, i32 0, i32 0
  %7 = load ptr, ptr %4, align 8
  store ptr %7, ptr %6, align 8
  %8 = getelementptr inbounds nuw %"class.pxrInternal_v0_24__pxrReserved__::TfFunctionRef.161", ptr %5, i32 0, i32 1
  store ptr @"_ZN32pxrInternal_v0_24__pxrReserved__13TfFunctionRefIFNS_26SdfPredicateFunctionResultEbEE9_InvokeFnIZNKS_21SdfPathExpressionEvalIRKNS_16HdSceneIndexPrimEE5MatchIZNKS_31HdCollectionExpressionEvaluator5MatchERKNS_7SdfPathEE3$_0EES1_SE_RKT_EUlbE_EES1_PKvb", ptr %8, align 8
  ret void
}

; Function Attrs: mustprogress nounwind uwtable
define linkonce_odr ptr @_ZNKSt6vectorIN32pxrInternal_v0_24__pxrReserved__21SdfPathExpressionEvalIRKNS0_16HdSceneIndexPrimEE12_PatternImplESaIS6_EE6cbeginEv(ptr noundef nonnull align 8 dereferenceable(24) %0) #2 comdat align 2 {
  %2 = alloca %"class.__gnu_cxx::__normal_iterator", align 8
  %3 = alloca ptr, align 8
  store ptr %0, ptr %3, align 8
  %4 = load ptr, ptr %3, align 8
  %5 = getelementptr inbounds nuw %"struct.std::_Vector_base.1", ptr %4, i32 0, i32 0
  %6 = getelementptr inbounds nuw %"struct.std::_Vector_base<pxrInternal_v0_24__pxrReserved__::SdfPathExpressionEval<const pxrInternal_v0_24__pxrReserved__::HdSceneIndexPrim &>::_PatternImpl, std::allocator<pxrInternal_v0_24__pxrReserved__::SdfPathExpressionEval<const pxrInternal_v0_24__pxrReserved__::HdSceneIndexPrim &>::_PatternImpl>>::_Vector_impl_data", ptr %5, i32 0, i32 0
  call void @_ZN9__gnu_cxx17__normal_iteratorIPKN32pxrInternal_v0_24__pxrReserved__21SdfPathExpressionEvalIRKNS1_16HdSceneIndexPrimEE12_PatternImplESt6vectorIS7_SaIS7_EEEC2ERKS9_(ptr noundef nonnull align 8 dereferenceable(8) %2, ptr noundef nonnull align 8 dereferenceable(8) %6) #11
  %7 = getelementptr inbounds nuw %"class.__gnu_cxx::__normal_iterator", ptr %2, i32 0, i32 0
  %8 = load ptr, ptr %7, align 8
  ret ptr %8
}

; Function Attrs: mustprogress nounwind uwtable
define linkonce_odr void @_ZN32pxrInternal_v0_24__pxrReserved__26SdfPredicateFunctionResultC2EbNS0_9ConstancyE(ptr noundef nonnull align 4 dereferenceable(8) %0, i1 noundef zeroext %1, i32 noundef %2) unnamed_addr #2 comdat align 2 {
  %4 = alloca ptr, align 8
  %5 = alloca i8, align 1
  %6 = alloca i32, align 4
  store ptr %0, ptr %4, align 8
  %7 = zext i1 %1 to i8
  store i8 %7, ptr %5, align 1
  store i32 %2, ptr %6, align 4
  %8 = load ptr, ptr %4, align 8
  %9 = getelementptr inbounds nuw %"class.pxrInternal_v0_24__pxrReserved__::SdfPredicateFunctionResult", ptr %8, i32 0, i32 0
  %10 = load i8, ptr %5, align 1
  %11 = trunc i8 %10 to i1
  %12 = zext i1 %11 to i8
  store i8 %12, ptr %9, align 4
  %13 = getelementptr inbounds nuw %"class.pxrInternal_v0_24__pxrReserved__::SdfPredicateFunctionResult", ptr %8, i32 0, i32 1
  %14 = load i32, ptr %6, align 4
  store i32 %14, ptr %13, align 4
  ret void
}

; Function Attrs: mustprogress nounwind uwtable
define linkonce_odr noundef zeroext i1 @_ZNK32pxrInternal_v0_24__pxrReserved__21SdfPathExpressionEvalIRKNS_16HdSceneIndexPrimEE7IsEmptyEv(ptr noundef nonnull align 8 dereferenceable(48) %0) #2 comdat align 2 {
  %2 = alloca ptr, align 8
  store ptr %0, ptr %2, align 8
  %3 = load ptr, ptr %2, align 8
  %4 = getelementptr inbounds nuw %"class.pxrInternal_v0_24__pxrReserved__::SdfPathExpressionEval", ptr %3, i32 0, i32 1
  %5 = call noundef zeroext i1 @_ZNKSt6vectorIN32pxrInternal_v0_24__pxrReserved__21SdfPathExpressionEvalIRKNS0_16HdSceneIndexPrimEE12_PatternImplESaIS6_EE5emptyEv(ptr noundef nonnull align 8 dereferenceable(24) %4) #11
  ret i1 %5
}

; Function Attrs: mustprogress nounwind uwtable
define linkonce_odr noundef zeroext i1 @_ZNK32pxrInternal_v0_24__pxrReserved__8TfRefPtrINS_16HdSceneIndexBaseEEntEv(ptr noundef nonnull align 8 dereferenceable(8) %0) #2 comdat align 2 {
  %2 = alloca ptr, align 8
  store ptr %0, ptr %2, align 8
  %3 = load ptr, ptr %2, align 8
  %4 = getelementptr inbounds nuw %"class.pxrInternal_v0_24__pxrReserved__::TfRefPtr", ptr %3, i32 0, i32 0
  %5 = load ptr, ptr %4, align 8
  %6 = icmp eq ptr %5, null
  ret i1 %6
}

; Function Attrs: mustprogress uwtable
define internal i64 @"_ZNK32pxrInternal_v0_24__pxrReserved__21SdfPathExpressionEvalIRKNS_16HdSceneIndexPrimEE5MatchIZNKS_31HdCollectionExpressionEvaluator5MatchERKNS_7SdfPathEE3$_0EENS_26SdfPredicateFunctionResultES9_RKT_"(ptr noundef nonnull align 8 dereferenceable(48) %0, ptr noundef nonnull align 4 dereferenceable(8) %1, ptr noundef nonnull align 8 dereferenceable(8) %2) #0 align 2 {
  %4 = alloca %"class.pxrInternal_v0_24__pxrReserved__::SdfPredicateFunctionResult", align 4
  %5 = alloca ptr, align 8
  %6 = alloca ptr, align 8
  %7 = alloca ptr, align 8
  %8 = alloca %"class.__gnu_cxx::__normal_iterator", align 8
  %9 = alloca %class.anon.160, align 8
  %10 = alloca %"class.pxrInternal_v0_24__pxrReserved__::TfFunctionRef.161", align 8
  store ptr %0, ptr %5, align 8
  store ptr %1, ptr %6, align 8
  store ptr %2, ptr %7, align 8
  %11 = load ptr, ptr %5, align 8
  %12 = call noundef zeroext i1 @_ZNK32pxrInternal_v0_24__pxrReserved__21SdfPathExpressionEvalIRKNS_16HdSceneIndexPrimEE7IsEmptyEv(ptr noundef nonnull align 8 dereferenceable(48) %11)
  br i1 %12, label %13, label %15

13:                                               ; preds = %3
  %14 = call i64 @_ZN32pxrInternal_v0_24__pxrReserved__26SdfPredicateFunctionResult12MakeConstantEb(i1 noundef zeroext false)
  store i64 %14, ptr %4, align 4
  br label %29

15:                                               ; preds = %3
  %16 = getelementptr inbounds nuw %"class.pxrInternal_v0_24__pxrReserved__::SdfPathExpressionEval", ptr %11, i32 0, i32 1
  %17 = call ptr @_ZNKSt6vectorIN32pxrInternal_v0_24__pxrReserved__21SdfPathExpressionEvalIRKNS0_16HdSceneIndexPrimEE12_PatternImplESaIS6_EE6cbeginEv(ptr noundef nonnull align 8 dereferenceable(24) %16) #11
  %18 = getelementptr inbounds nuw %"class.__gnu_cxx::__normal_iterator", ptr %8, i32 0, i32 0
  store ptr %17, ptr %18, align 8
  %19 = getelementptr inbounds nuw %class.anon.160, ptr %9, i32 0, i32 0
  store ptr %8, ptr %19, align 8
  %20 = getelementptr inbounds nuw %class.anon.160, ptr %9, i32 0, i32 1
  %21 = load ptr, ptr %6, align 8
  store ptr %21, ptr %20, align 8
  %22 = getelementptr inbounds nuw %class.anon.160, ptr %9, i32 0, i32 2
  %23 = load ptr, ptr %7, align 8
  store ptr %23, ptr %22, align 8
  call void @"_ZN32pxrInternal_v0_24__pxrReserved__13TfFunctionRefIFNS_26SdfPredicateFunctionResultEbEEC2IZNKS_21SdfPathExpressionEvalIRKNS_16HdSceneIndexPrimEE5MatchIZNKS_31HdCollectionExpressionEvaluator5MatchERKNS_7SdfPathEE3$_0EES1_SE_RKT_EUlbE_vEERSG_"(ptr noundef nonnull align 8 dereferenceable(16) %10, ptr noundef nonnull align 8 dereferenceable(24) %9) #11
  %24 = getelementptr inbounds nuw { ptr, ptr }, ptr %10, i32 0, i32 0
  %25 = load ptr, ptr %24, align 8
  %26 = getelementptr inbounds nuw { ptr, ptr }, ptr %10, i32 0, i32 1
  %27 = load ptr, ptr %26, align 8
  %28 = call i64 @_ZNK32pxrInternal_v0_24__pxrReserved__26Sdf_PathExpressionEvalBase9_EvalExprENS_13TfFunctionRefIFNS_26SdfPredicateFunctionResultEbEEE(ptr noundef nonnull align 8 dereferenceable(24) %11, ptr %25, ptr %27)
  store i64 %28, ptr %4, align 4
  br label %29

29:                                               ; preds = %15, %13
  %30 = load i64, ptr %4, align 4
  ret i64 %30
}

; Function Attrs: mustprogress nounwind uwtable
define linkonce_odr noundef ptr @_ZN32pxrInternal_v0_24__pxrReserved__11get_pointerERKNS_8TfRefPtrINS_16HdSceneIndexBaseEEE(ptr noundef nonnull align 8 dereferenceable(8) %0) #2 comdat {
  %2 = alloca ptr, align 8
  store ptr %0, ptr %2, align 8
  %3 = load ptr, ptr %2, align 8
  %4 = getelementptr inbounds nuw %"class.pxrInternal_v0_24__pxrReserved__::TfRefPtr", ptr %3, i32 0, i32 0
  %5 = load ptr, ptr %4, align 8
  ret ptr %5
}

; Function Attrs: mustprogress uwtable
define linkonce_odr i64 @_ZN32pxrInternal_v0_24__pxrReserved__26SdfPredicateFunctionResult12MakeConstantEb(i1 noundef zeroext %0) #0 comdat align 2 {
  %2 = alloca %"class.pxrInternal_v0_24__pxrReserved__::SdfPredicateFunctionResult", align 4
  %3 = alloca i8, align 1
  %4 = zext i1 %0 to i8
  store i8 %4, ptr %3, align 1
  %5 = load i8, ptr %3, align 1
  %6 = trunc i8 %5 to i1
  call void @_ZN32pxrInternal_v0_24__pxrReserved__26SdfPredicateFunctionResultC2EbNS0_9ConstancyE(ptr noundef nonnull align 4 dereferenceable(8) %2, i1 noundef zeroext %6, i32 noundef 0)
  %7 = load i64, ptr %2, align 4
  ret i64 %7
}

; Function Attrs: mustprogress uwtable
define linkonce_odr noundef zeroext i1 @_ZNK32pxrInternal_v0_24__pxrReserved__31HdCollectionExpressionEvaluator7IsEmptyEv(ptr noundef nonnull align 8 dereferenceable(56) %0) #0 comdat align 2 {
  %2 = alloca ptr, align 8
  store ptr %0, ptr %2, align 8
  %3 = load ptr, ptr %2, align 8
  %4 = getelementptr inbounds nuw %"class.pxrInternal_v0_24__pxrReserved__::HdCollectionExpressionEvaluator", ptr %3, i32 0, i32 0
  %5 = call noundef zeroext i1 @_ZNK32pxrInternal_v0_24__pxrReserved__8TfRefPtrINS_16HdSceneIndexBaseEEntEv(ptr noundef nonnull align 8 dereferenceable(8) %4)
  br i1 %5, label %9, label %6

6:                                                ; preds = %1
  %7 = getelementptr inbounds nuw %"class.pxrInternal_v0_24__pxrReserved__::HdCollectionExpressionEvaluator", ptr %3, i32 0, i32 1
  %8 = call noundef zeroext i1 @_ZNK32pxrInternal_v0_24__pxrReserved__21SdfPathExpressionEvalIRKNS_16HdSceneIndexPrimEE7IsEmptyEv(ptr noundef nonnull align 8 dereferenceable(48) %7)
  br label %9

9:                                                ; preds = %6, %1
  %10 = phi i1 [ true, %1 ], [ %8, %6 ]
  ret i1 %10
}

; Function Attrs: mustprogress uwtable
define i64 @_ZNK32pxrInternal_v0_24__pxrReserved__31HdCollectionExpressionEvaluator5MatchERKNS_7SdfPathE(ptr noundef nonnull align 8 dereferenceable(56) %0, ptr noundef nonnull align 4 dereferenceable(8) %1) #0 align 2 {
  %3 = alloca %"class.pxrInternal_v0_24__pxrReserved__::SdfPredicateFunctionResult", align 4
  %4 = alloca ptr, align 8
  %5 = alloca ptr, align 8
  %6 = alloca %class.anon, align 8
  store ptr %0, ptr %4, align 8
  store ptr %1, ptr %5, align 8
  %7 = load ptr, ptr %4, align 8
  %8 = call noundef zeroext i1 @_ZNK32pxrInternal_v0_24__pxrReserved__31HdCollectionExpressionEvaluator7IsEmptyEv(ptr noundef nonnull align 8 dereferenceable(56) %7)
  br i1 %8, label %9, label %11

9:                                                ; preds = %2
  %10 = call i64 @_ZN32pxrInternal_v0_24__pxrReserved__26SdfPredicateFunctionResult12MakeConstantEb(i1 noundef zeroext false)
  store i64 %10, ptr %3, align 4
  br label %18

11:                                               ; preds = %2
  %12 = getelementptr inbounds nuw %"class.pxrInternal_v0_24__pxrReserved__::HdCollectionExpressionEvaluator", ptr %7, i32 0, i32 1
  %13 = load ptr, ptr %5, align 8
  %14 = getelementptr inbounds nuw %class.anon, ptr %6, i32 0, i32 0
  %15 = getelementptr inbounds nuw %"class.pxrInternal_v0_24__pxrReserved__::HdCollectionExpressionEvaluator", ptr %7, i32 0, i32 0
  %16 = call noundef ptr @_ZN32pxrInternal_v0_24__pxrReserved__11get_pointerERKNS_8TfRefPtrINS_16HdSceneIndexBaseEEE(ptr noundef nonnull align 8 dereferenceable(8) %15)
  store ptr %16, ptr %14, align 8
  %17 = call i64 @"_ZNK32pxrInternal_v0_24__pxrReserved__21SdfPathExpressionEvalIRKNS_16HdSceneIndexPrimEE5MatchIZNKS_31HdCollectionExpressionEvaluator5MatchERKNS_7SdfPathEE3$_0EENS_26SdfPredicateFunctionResultES9_RKT_"(ptr noundef nonnull align 8 dereferenceable(48) %12, ptr noundef nonnull align 4 dereferenceable(8) %13, ptr noundef nonnull align 8 dereferenceable(8) %6)
  store i64 %17, ptr %3, align 4
  br label %18

18:                                               ; preds = %11, %9
  %19 = load i64, ptr %3, align 4
  ret i64 %19
}