; Function Attrs: mustprogress uwtable
define i64 @_ZNK32pxrInternal_v0_24__pxrReserved__31HdCollectionExpressionEvaluator5MatchERKNS_7SdfPathE(ptr noundef nonnull align 8 dereferenceable(56) %0, ptr noundef nonnull align 4 dereferenceable(8) %1) local_unnamed_addr #0 align 2 {
  %3 = alloca %"class.__gnu_cxx::__normal_iterator", align 8
  %4 = alloca %class.anon.160, align 8
  %5 = alloca %class.anon, align 8
  %6 = load ptr, ptr %0, align 8
  %7 = icmp eq ptr %6, null
  %8 = getelementptr inbounds i8, ptr %0, i64 32
  %9 = load ptr, ptr %8, align 8
  %10 = getelementptr inbounds i8, ptr %0, i64 40
  %11 = load ptr, ptr %10, align 8
  %12 = icmp eq ptr %9, %11
  %13 = select i1 %7, i1 true, i1 %12
  br i1 %13, label %18, label %"_ZNK32pxrInternal_v0_24__pxrReserved__21SdfPathExpressionEvalIRKNS_16HdSceneIndexPrimEE5MatchIZNKS_31HdCollectionExpressionEvaluator5MatchERKNS_7SdfPathEE3$_0EENS_26SdfPredicateFunctionResultES9_RKT_.exit"

"_ZNK32pxrInternal_v0_24__pxrReserved__21SdfPathExpressionEvalIRKNS_16HdSceneIndexPrimEE5MatchIZNKS_31HdCollectionExpressionEvaluator5MatchERKNS_7SdfPathEE3$_0EENS_26SdfPredicateFunctionResultES9_RKT_.exit": ; preds = %2
  store ptr %6, ptr %5, align 8
  call void @llvm.lifetime.start.p0(i64 8, ptr nonnull %3)
  call void @llvm.lifetime.start.p0(i64 24, ptr nonnull %4)
  %14 = getelementptr inbounds nuw i8, ptr %0, i64 8
  store ptr %9, ptr %3, align 8
  store ptr %3, ptr %4, align 8
  %15 = getelementptr inbounds nuw i8, ptr %4, i64 8
  store ptr %1, ptr %15, align 8
  %16 = getelementptr inbounds nuw i8, ptr %4, i64 16
  store ptr %5, ptr %16, align 8
  %17 = call i64 @_ZNK32pxrInternal_v0_24__pxrReserved__26Sdf_PathExpressionEvalBase9_EvalExprENS_13TfFunctionRefIFNS_26SdfPredicateFunctionResultEbEEE(ptr noundef nonnull align 8 dereferenceable(24) %14, ptr nonnull %4, ptr nonnull @"_ZN32pxrInternal_v0_24__pxrReserved__13TfFunctionRefIFNS_26SdfPredicateFunctionResultEbEE9_InvokeFnIZNKS_21SdfPathExpressionEvalIRKNS_16HdSceneIndexPrimEE5MatchIZNKS_31HdCollectionExpressionEvaluator5MatchERKNS_7SdfPathEE3$_0EES1_SE_RKT_EUlbE_EES1_PKvb")
  call void @llvm.lifetime.end.p0(i64 8, ptr nonnull %3)
  call void @llvm.lifetime.end.p0(i64 24, ptr nonnull %4)
  br label %18

18:                                               ; preds = %2, %"_ZNK32pxrInternal_v0_24__pxrReserved__21SdfPathExpressionEvalIRKNS_16HdSceneIndexPrimEE5MatchIZNKS_31HdCollectionExpressionEvaluator5MatchERKNS_7SdfPathEE3$_0EENS_26SdfPredicateFunctionResultES9_RKT_.exit"
  %.sroa.0.0 = phi i64 [ %17, %"_ZNK32pxrInternal_v0_24__pxrReserved__21SdfPathExpressionEvalIRKNS_16HdSceneIndexPrimEE5MatchIZNKS_31HdCollectionExpressionEvaluator5MatchERKNS_7SdfPathEE3$_0EENS_26SdfPredicateFunctionResultES9_RKT_.exit" ], [ 0, %2 ]
  ret i64 %.sroa.0.0
}